; Function Attrs: nounwind uwtable
define range(i32 -22, 1) i32 @IDASetMaxOrd(ptr noundef %0, i32 noundef %1) local_unnamed_addr #0 {
  %3 = icmp eq ptr %0, null
  br i1 %3, label %4, label %5

4:                                                ; preds = %2
  tail call void (ptr, i32, i32, ptr, ptr, ptr, ...) @IDAProcessError(ptr noundef null, i32 noundef -20, i32 noundef 219, ptr noundef nonnull @__func__.IDASetMaxOrd, ptr noundef nonnull @.str, ptr noundef nonnull @.str.1) #9
  br label %16

5:                                                ; preds = %2
  %6 = icmp slt i32 %1, 1
  br i1 %6, label %7, label %8

7:                                                ; preds = %5
  tail call void (ptr, i32, i32, ptr, ptr, ptr, ...) @IDAProcessError(ptr noundef nonnull %0, i32 noundef -22, i32 noundef 227, ptr noundef nonnull @__func__.IDASetMaxOrd, ptr noundef nonnull @.str, ptr noundef nonnull @.str.2) #9
  br label %16

8:                                                ; preds = %5
  %9 = getelementptr inbounds nuw i8, ptr %0, i64 1380
  %10 = load i32, ptr %9, align 4
  %11 = icmp sgt i32 %1, %10
  br i1 %11, label %12, label %13

12:                                               ; preds = %8
  tail call void (ptr, i32, i32, ptr, ptr, ptr, ...) @IDAProcessError(ptr noundef nonnull %0, i32 noundef -22, i32 noundef 238, ptr noundef nonnull @__func__.IDASetMaxOrd, ptr noundef nonnull @.str, ptr noundef nonnull @.str.3) #9
  br label %16

13:                                               ; preds = %8
  %14 = tail call i32 @llvm.umin.i32(i32 %1, i32 5)
  %15 = getelementptr inbounds nuw i8, ptr %0, i64 1376
  store i32 %14, ptr %15, align 8
  br label %16

16:                                               ; preds = %13, %12, %7, %4
  %.0 = phi i32 [ -20, %4 ], [ -22, %7 ], [ -22, %12 ], [ 0, %13 ]
  ret i32 %.0
}